; Function Attrs: mustprogress uwtable
define void @_ZN6icu_7718CalendarAstronomer7setTimeEd(ptr noundef nonnull writeonly align 8 captures(none) dereferenceable(57) initializes((0, 40), (56, 57)) %0, double noundef %1) local_unnamed_addr #0 align 2 {
  store double %1, ptr %0, align 8, !tbaa !3
  %3 = tail call double @uprv_getNaN_77()
  %4 = getelementptr inbounds nuw i8, ptr %0, i64 8
  store double %3, ptr %4, align 8, !tbaa !9
  %5 = getelementptr inbounds nuw i8, ptr %0, i64 16
  store double %3, ptr %5, align 8, !tbaa !10
  %6 = getelementptr inbounds nuw i8, ptr %0, i64 24
  store double %3, ptr %6, align 8, !tbaa !11
  %7 = getelementptr inbounds nuw i8, ptr %0, i64 32
  store double %3, ptr %7, align 8, !tbaa !12
  %8 = getelementptr inbounds nuw i8, ptr %0, i64 56
  store i8 0, ptr %8, align 8, !tbaa !13
  ret void
}